; Function Attrs: mustprogress uwtable
define noundef nonnull align 8 dereferenceable(16) ptr @_ZN13IlmThread_3_210ThreadPool16globalThreadPoolEv() local_unnamed_addr #0 align 2 personality ptr @__gxx_personality_v0 {
entry:
  %0 = load atomic i8, ptr @_ZGVZN13IlmThread_3_210ThreadPool16globalThreadPoolEvE11gThreadPool acquire, align 8
  %guard.uninitialized = icmp eq i8 %0, 0
  br i1 %guard.uninitialized, label %init.check, label %init.end, !prof !53

init.check:                                       ; preds = %entry
  %1 = tail call i32 @__cxa_guard_acquire(ptr nonnull @_ZGVZN13IlmThread_3_210ThreadPool16globalThreadPoolEvE11gThreadPool) #23
  %tobool.not = icmp eq i32 %1, 0
  br i1 %tobool.not, label %init.end, label %init

init:                                             ; preds = %init.check
  invoke void @_ZN13IlmThread_3_210ThreadPoolC1Ej(ptr noundef nonnull align 8 dereferenceable(16) @_ZZN13IlmThread_3_210ThreadPool16globalThreadPoolEvE11gThreadPool, i32 noundef 0)
          to label %invoke.cont unwind label %lpad

invoke.cont:                                      ; preds = %init
  %2 = tail call i32 @__cxa_atexit(ptr nonnull @_ZN13IlmThread_3_210ThreadPoolD1Ev, ptr nonnull @_ZZN13IlmThread_3_210ThreadPool16globalThreadPoolEvE11gThreadPool, ptr nonnull @__dso_handle) #23
  tail call void @__cxa_guard_release(ptr nonnull @_ZGVZN13IlmThread_3_210ThreadPool16globalThreadPoolEvE11gThreadPool) #23
  br label %init.end

init.end:                                         ; preds = %invoke.cont, %init.check, %entry
  ret ptr @_ZZN13IlmThread_3_210ThreadPool16globalThreadPoolEvE11gThreadPool

lpad:                                             ; preds = %init
  %3 = landingpad { ptr, i32 }
          cleanup
  tail call void @__cxa_guard_abort(ptr nonnull @_ZGVZN13IlmThread_3_210ThreadPool16globalThreadPoolEvE11gThreadPool) #23
  resume { ptr, i32 } %3
}